target datalayout = "e-m:e-p270:32:32-p271:32:32-p272:64:64-i64:64-i128:128-f80:128-n8:16:32:64-S128"
target triple = "x86_64-unknown-linux-gnu"

%struct.VFIODevice = type { %struct.anon, %struct.anon.0, %struct.anon.1, ptr, ptr, ptr, ptr, ptr, i32, i32, i8, i8, i8, i8, i32, ptr, i32, i32, i32, ptr, ptr, i32, i8, i8 }
%struct.anon = type { ptr, ptr }
%struct.anon.0 = type { ptr, ptr }
%struct.anon.1 = type { ptr, ptr }
%struct.VFIOMigration = type { ptr, ptr, %struct.Notifier, i32, i32, ptr, i64, i64, i64, i64, i8 }
%struct.Notifier = type { ptr, %struct.anon.2 }
%struct.anon.2 = type { ptr, ptr }
%struct.timeval = type { i64, i64 }

@bytes_transferred = internal global i64 0, align 8
@trace_events_enabled_count = external global i32, align 4
@message_with_timestamp = external global i8, align 1
@qemu_loglevel = external global i32, align 4
@_TRACE_VFIO_SAVE_BLOCK_DSTATE = external global i16, align 2
@.str.38 = private unnamed_addr constant [49 x i8] c"%d@%zu.%06zu:vfio_save_block  (%s) data_size %d\0A\00", align 1
@.str.39 = private unnamed_addr constant [36 x i8] c"vfio_save_block  (%s) data_size %d\0A\00", align 1

; Function Attrs: nounwind sspstrong uwtable
define internal zeroext i1 @qemu_loglevel_mask(i32 noundef %mask) #0 {
entry:
  %mask.addr = alloca i32, align 4
  store i32 %mask, ptr %mask.addr, align 4
  %0 = load i32, ptr @qemu_loglevel, align 4
  %1 = load i32, ptr %mask.addr, align 4
  %and = and i32 %0, %1
  %cmp = icmp ne i32 %and, 0
  ret i1 %cmp
}

; Function Attrs: nounwind sspstrong uwtable
define internal void @_nocheck__trace_vfio_save_block(ptr noundef %name, i32 noundef %data_size) #0 {
entry:
  %name.addr = alloca ptr, align 8
  %data_size.addr = alloca i32, align 4
  %_now = alloca %struct.timeval, align 8
  store ptr %name, ptr %name.addr, align 8
  store i32 %data_size, ptr %data_size.addr, align 4
  %0 = load i32, ptr @trace_events_enabled_count, align 4
  %tobool = icmp ne i32 %0, 0
  %lnot = xor i1 %tobool, true
  %lnot1 = xor i1 %lnot, true
  %lnot.ext = zext i1 %lnot1 to i32
  %conv = sext i32 %lnot.ext to i64
  %tobool2 = icmp ne i64 %conv, 0
  br i1 %tobool2, label %land.lhs.true, label %if.end11

land.lhs.true:                                    ; preds = %entry
  %1 = load i16, ptr @_TRACE_VFIO_SAVE_BLOCK_DSTATE, align 2
  %conv3 = zext i16 %1 to i32
  %tobool4 = icmp ne i32 %conv3, 0
  br i1 %tobool4, label %land.lhs.true5, label %if.end11

land.lhs.true5:                                   ; preds = %land.lhs.true
  %call = call zeroext i1 @qemu_loglevel_mask(i32 noundef 32768)
  br i1 %call, label %if.then, label %if.end11

if.then:                                          ; preds = %land.lhs.true5
  %2 = load i8, ptr @message_with_timestamp, align 1
  %tobool7 = trunc i8 %2 to i1
  br i1 %tobool7, label %if.then8, label %if.else

if.then8:                                         ; preds = %if.then
  %call9 = call i32 @gettimeofday(ptr noundef %_now, ptr noundef null) #9
  %call10 = call i32 @qemu_get_thread_id()
  %tv_sec = getelementptr inbounds %struct.timeval, ptr %_now, i32 0, i32 0
  %3 = load i64, ptr %tv_sec, align 8
  %tv_usec = getelementptr inbounds %struct.timeval, ptr %_now, i32 0, i32 1
  %4 = load i64, ptr %tv_usec, align 8
  %5 = load ptr, ptr %name.addr, align 8
  %6 = load i32, ptr %data_size.addr, align 4
  call void (ptr, ...) @qemu_log(ptr noundef @.str.38, i32 noundef %call10, i64 noundef %3, i64 noundef %4, ptr noundef %5, i32 noundef %6)
  br label %if.end

if.else:                                          ; preds = %if.then
  %7 = load ptr, ptr %name.addr, align 8
  %8 = load i32, ptr %data_size.addr, align 4
  call void (ptr, ...) @qemu_log(ptr noundef @.str.39, ptr noundef %7, i32 noundef %8)
  br label %if.end

if.end:                                           ; preds = %if.else, %if.then8
  br label %if.end11

if.end11:                                         ; preds = %if.end, %land.lhs.true5, %land.lhs.true, %entry
  ret void
}

; Function Attrs: nounwind sspstrong uwtable
define internal void @trace_vfio_save_block(ptr noundef %name, i32 noundef %data_size) #0 {
entry:
  %name.addr = alloca ptr, align 8
  %data_size.addr = alloca i32, align 4
  store ptr %name, ptr %name.addr, align 8
  store i32 %data_size, ptr %data_size.addr, align 4
  %0 = load ptr, ptr %name.addr, align 8
  %1 = load i32, ptr %data_size.addr, align 4
  call void @_nocheck__trace_vfio_save_block(ptr noundef %0, i32 noundef %1)
  ret void
}

; Function Attrs: nounwind sspstrong uwtable
define internal i64 @vfio_save_block(ptr noundef %f, ptr noundef %migration) #0 {
entry:
  %retval = alloca i64, align 8
  %f.addr = alloca ptr, align 8
  %migration.addr = alloca ptr, align 8
  %data_size = alloca i64, align 8
  store ptr %f, ptr %f.addr, align 8
  store ptr %migration, ptr %migration.addr, align 8
  %0 = load ptr, ptr %migration.addr, align 8
  %data_fd = getelementptr inbounds %struct.VFIOMigration, ptr %0, i32 0, i32 4
  %1 = load i32, ptr %data_fd, align 4
  %2 = load ptr, ptr %migration.addr, align 8
  %data_buffer = getelementptr inbounds %struct.VFIOMigration, ptr %2, i32 0, i32 5
  %3 = load ptr, ptr %data_buffer, align 8
  %4 = load ptr, ptr %migration.addr, align 8
  %data_buffer_size = getelementptr inbounds %struct.VFIOMigration, ptr %4, i32 0, i32 6
  %5 = load i64, ptr %data_buffer_size, align 8
  %call = call i64 @read(i32 noundef %1, ptr noundef %3, i64 noundef %5)
  store i64 %call, ptr %data_size, align 8
  %6 = load i64, ptr %data_size, align 8
  %cmp = icmp slt i64 %6, 0
  br i1 %cmp, label %if.then, label %if.end5

if.then:                                          ; preds = %entry
  %call1 = call ptr @__errno_location() #11
  %7 = load i32, ptr %call1, align 4
  %cmp2 = icmp eq i32 %7, 42
  br i1 %cmp2, label %if.then3, label %if.end

if.then3:                                         ; preds = %if.then
  store i64 0, ptr %retval, align 8
  br label %return

if.end:                                           ; preds = %if.then
  %call4 = call ptr @__errno_location() #11
  %8 = load i32, ptr %call4, align 4
  %sub = sub i32 0, %8
  %conv = sext i32 %sub to i64
  store i64 %conv, ptr %retval, align 8
  br label %return

if.end5:                                          ; preds = %entry
  %9 = load i64, ptr %data_size, align 8
  %cmp6 = icmp eq i64 %9, 0
  br i1 %cmp6, label %if.then8, label %if.end9

if.then8:                                         ; preds = %if.end5
  store i64 0, ptr %retval, align 8
  br label %return

if.end9:                                          ; preds = %if.end5
  %10 = load ptr, ptr %f.addr, align 8
  call void @qemu_put_be64(ptr noundef %10, i64 noundef -284164092)
  %11 = load ptr, ptr %f.addr, align 8
  %12 = load i64, ptr %data_size, align 8
  call void @qemu_put_be64(ptr noundef %11, i64 noundef %12)
  %13 = load ptr, ptr %f.addr, align 8
  %14 = load ptr, ptr %migration.addr, align 8
  %data_buffer10 = getelementptr inbounds %struct.VFIOMigration, ptr %14, i32 0, i32 5
  %15 = load ptr, ptr %data_buffer10, align 8
  %16 = load i64, ptr %data_size, align 8
  call void @qemu_put_buffer(ptr noundef %13, ptr noundef %15, i64 noundef %16)
  %17 = load i64, ptr %data_size, align 8
  %18 = load i64, ptr @bytes_transferred, align 8
  %add = add i64 %18, %17
  store i64 %add, ptr @bytes_transferred, align 8
  %19 = load ptr, ptr %migration.addr, align 8
  %vbasedev = getelementptr inbounds %struct.VFIOMigration, ptr %19, i32 0, i32 0
  %20 = load ptr, ptr %vbasedev, align 8
  %name = getelementptr inbounds %struct.VFIODevice, ptr %20, i32 0, i32 6
  %21 = load ptr, ptr %name, align 8
  %22 = load i64, ptr %data_size, align 8
  %conv11 = trunc i64 %22 to i32
  call void @trace_vfio_save_block(ptr noundef %21, i32 noundef %conv11)
  %23 = load ptr, ptr %f.addr, align 8
  %call12 = call i32 @qemu_file_get_error(ptr noundef %23)
  %tobool = icmp ne i32 %call12, 0
  br i1 %tobool, label %cond.true, label %cond.false

cond.true:                                        ; preds = %if.end9
  %conv13 = sext i32 %call12 to i64
  br label %cond.end

cond.false:                                       ; preds = %if.end9
  %24 = load i64, ptr %data_size, align 8
  br label %cond.end

cond.end:                                         ; preds = %cond.false, %cond.true
  %cond = phi i64 [ %conv13, %cond.true ], [ %24, %cond.false ]
  store i64 %cond, ptr %retval, align 8
  br label %return

return:                                           ; preds = %cond.end, %if.then8, %if.end, %if.then3
  %25 = load i64, ptr %retval, align 8
  ret i64 %25
}