; Function Attrs: nounwind sspstrong uwtable
define internal fastcc range(i64 -2147483648, -9223372036854775808) i64 @vfio_save_block(ptr noundef %f, ptr noundef readonly captures(none) %migration) unnamed_addr #2 {
entry:
  %_now.i.i = alloca %struct.timeval, align 8
  %data_fd = getelementptr inbounds nuw i8, ptr %migration, i64 44
  %0 = load i32, ptr %data_fd, align 4
  %data_buffer = getelementptr inbounds nuw i8, ptr %migration, i64 48
  %1 = load ptr, ptr %data_buffer, align 8
  %data_buffer_size = getelementptr inbounds nuw i8, ptr %migration, i64 56
  %2 = load i64, ptr %data_buffer_size, align 8
  %call = tail call i64 @read(i32 noundef %0, ptr noundef %1, i64 noundef %2) #16
  %cmp = icmp slt i64 %call, 0
  br i1 %cmp, label %if.then, label %if.end5

if.then:                                          ; preds = %entry
  %call1 = tail call ptr @__errno_location() #17
  %3 = load i32, ptr %call1, align 4
  %cmp2 = icmp eq i32 %3, 42
  br i1 %cmp2, label %return, label %if.end

if.end:                                           ; preds = %if.then
  %sub = sub i32 0, %3
  %conv = sext i32 %sub to i64
  br label %return

if.end5:                                          ; preds = %entry
  %cmp6 = icmp eq i64 %call, 0
  br i1 %cmp6, label %return, label %if.end9

if.end9:                                          ; preds = %if.end5
  tail call void @qemu_put_be64(ptr noundef %f, i64 noundef -284164092) #16
  tail call void @qemu_put_be64(ptr noundef %f, i64 noundef %call) #16
  %4 = load ptr, ptr %data_buffer, align 8
  tail call void @qemu_put_buffer(ptr noundef %f, ptr noundef %4, i64 noundef %call) #16
  %5 = load i64, ptr @bytes_transferred, align 8
  %add = add i64 %5, %call
  store i64 %add, ptr @bytes_transferred, align 8
  %6 = load ptr, ptr %migration, align 8
  %name = getelementptr inbounds nuw i8, ptr %6, i64 72
  %7 = load ptr, ptr %name, align 8
  %conv11 = trunc i64 %call to i32
  call void @llvm.lifetime.start.p0(i64 16, ptr nonnull %_now.i.i)
  %8 = load i32, ptr @trace_events_enabled_count, align 4
  %tobool.i.i = icmp ne i32 %8, 0
  %9 = load i16, ptr @_TRACE_VFIO_SAVE_BLOCK_DSTATE, align 2
  %tobool4.i.i = icmp ne i16 %9, 0
  %or.cond.i.i = select i1 %tobool.i.i, i1 %tobool4.i.i, i1 false
  br i1 %or.cond.i.i, label %land.lhs.true5.i.i, label %trace_vfio_save_block.exit

land.lhs.true5.i.i:                               ; preds = %if.end9
  %10 = load i32, ptr @qemu_loglevel, align 4
  %and.i.i.i = and i32 %10, 32768
  %cmp.i.not.i.i = icmp eq i32 %and.i.i.i, 0
  br i1 %cmp.i.not.i.i, label %trace_vfio_save_block.exit, label %if.then.i.i

if.then.i.i:                                      ; preds = %land.lhs.true5.i.i
  %11 = load i8, ptr @message_with_timestamp, align 1
  %tobool7.i.i = trunc i8 %11 to i1
  br i1 %tobool7.i.i, label %if.then8.i.i, label %if.else.i.i

if.then8.i.i:                                     ; preds = %if.then.i.i
  %call9.i.i = call i32 @gettimeofday(ptr noundef nonnull %_now.i.i, ptr noundef null) #16
  %call10.i.i = tail call i32 @qemu_get_thread_id() #16
  %12 = load i64, ptr %_now.i.i, align 8
  %tv_usec.i.i = getelementptr inbounds nuw i8, ptr %_now.i.i, i64 8
  %13 = load i64, ptr %tv_usec.i.i, align 8
  tail call void (ptr, ...) @qemu_log(ptr noundef nonnull @.str.38, i32 noundef %call10.i.i, i64 noundef %12, i64 noundef %13, ptr noundef %7, i32 noundef %conv11) #16
  br label %trace_vfio_save_block.exit

if.else.i.i:                                      ; preds = %if.then.i.i
  tail call void (ptr, ...) @qemu_log(ptr noundef nonnull @.str.39, ptr noundef %7, i32 noundef %conv11) #16
  br label %trace_vfio_save_block.exit

trace_vfio_save_block.exit:                       ; preds = %if.end9, %land.lhs.true5.i.i, %if.then8.i.i, %if.else.i.i
  call void @llvm.lifetime.end.p0(i64 16, ptr nonnull %_now.i.i)
  %call12 = tail call i32 @qemu_file_get_error(ptr noundef %f) #16
  %tobool.not = icmp eq i32 %call12, 0
  %conv13 = sext i32 %call12 to i64
  %cond = select i1 %tobool.not, i64 %call, i64 %conv13
  br label %return

return:                                           ; preds = %if.end5, %if.then, %trace_vfio_save_block.exit, %if.end
  %retval.0 = phi i64 [ %conv, %if.end ], [ %cond, %trace_vfio_save_block.exit ], [ 0, %if.then ], [ 0, %if.end5 ]
  ret i64 %retval.0
}